; ModuleID = '22/1012.c'
source_filename = "22/1012.c"
target datalayout = "e-m:e-p270:32:32-p271:32:32-p272:64:64-i64:64-f80:128-n8:16:32:64-S128"
target triple = "x86_64-pc-linux-gnu"

@.str = private unnamed_addr constant [3 x i8] c"%d\00", align 1
@.str.1 = private unnamed_addr constant [3 x i8] c"No\00", align 1

; Function Attrs: noinline nounwind uwtable
define dso_local i32 @main() #0 {
  %1 = alloca i32, align 4
  %2 = alloca [500 x i32], align 16
  %3 = alloca i32, align 4
  %4 = alloca i32, align 4
  %5 = alloca i32, align 4
  %6 = alloca i32, align 4
  %7 = alloca i32, align 4
  %8 = alloca [500 x i8], align 16
  store i32 0, i32* %1, align 4
  store i32 1, i32* %6, align 4
  store i32 1, i32* %7, align 4
  br label %9

9:                                                ; preds = %26, %0
  %10 = load i32, i32* %7, align 4
  %11 = sext i32 %10 to i64
  %12 = getelementptr inbounds [500 x i8], [500 x i8]* %8, i64 0, i64 %11
  %13 = load i8, i8* %12, align 1
  %14 = sext i8 %13 to i32
  %15 = icmp ne i32 %14, 10
  br i1 %15, label %16, label %29

16:                                               ; preds = %9
  %17 = load i32, i32* %6, align 4
  %18 = sext i32 %17 to i64
  %19 = getelementptr inbounds [500 x i32], [500 x i32]* %2, i64 0, i64 %18
  %20 = call i32 (i8*, ...) @__isoc99_scanf(i8* getelementptr inbounds ([3 x i8], [3 x i8]* @.str, i64 0, i64 0), i32* %19)
  %21 = call i32 @getchar()
  %22 = trunc i32 %21 to i8
  %23 = load i32, i32* %7, align 4
  %24 = sext i32 %23 to i64
  %25 = getelementptr inbounds [500 x i8], [500 x i8]* %8, i64 0, i64 %24
  store i8 %22, i8* %25, align 1
  br label %26

26:                                               ; preds = %16
  %27 = load i32, i32* %6, align 4
  %28 = add nsw i32 %27, 1
  store i32 %28, i32* %6, align 4
  br label %9

29:                                               ; preds = %9
  %30 = load i32, i32* %6, align 4
  %31 = icmp eq i32 %30, 2
  br i1 %31, label %32, label %34

32:                                               ; preds = %29
  %33 = call i32 (i8*, ...) @printf(i8* getelementptr inbounds ([3 x i8], [3 x i8]* @.str.1, i64 0, i64 0))
  br label %156

34:                                               ; preds = %29
  %35 = load i32, i32* %6, align 4
  %36 = icmp eq i32 %35, 3
  br i1 %36, label %37, label %61

37:                                               ; preds = %34
  %38 = getelementptr inbounds [500 x i32], [500 x i32]* %2, i64 0, i64 1
  %39 = load i32, i32* %38, align 4
  %40 = getelementptr inbounds [500 x i32], [500 x i32]* %2, i64 0, i64 2
  %41 = load i32, i32* %40, align 8
  %42 = icmp sgt i32 %39, %41
  br i1 %42, label %43, label %47

43:                                               ; preds = %37
  %44 = getelementptr inbounds [500 x i32], [500 x i32]* %2, i64 0, i64 2
  %45 = load i32, i32* %44, align 8
  %46 = call i32 (i8*, ...) @printf(i8* getelementptr inbounds ([3 x i8], [3 x i8]* @.str, i64 0, i64 0), i32 %45)
  br label %60

47:                                               ; preds = %37
  %48 = getelementptr inbounds [500 x i32], [500 x i32]* %2, i64 0, i64 1
  %49 = load i32, i32* %48, align 4
  %50 = getelementptr inbounds [500 x i32], [500 x i32]* %2, i64 0, i64 2
  %51 = load i32, i32* %50, align 8
  %52 = icmp slt i32 %49, %51
  br i1 %52, label %53, label %57

53:                                               ; preds = %47
  %54 = getelementptr inbounds [500 x i32], [500 x i32]* %2, i64 0, i64 1
  %55 = load i32, i32* %54, align 4
  %56 = call i32 (i8*, ...) @printf(i8* getelementptr inbounds ([3 x i8], [3 x i8]* @.str, i64 0, i64 0), i32 %55)
  br label %59

57:                                               ; preds = %47
  %58 = call i32 (i8*, ...) @printf(i8* getelementptr inbounds ([3 x i8], [3 x i8]* @.str.1, i64 0, i64 0))
  br label %59

59:                                               ; preds = %57, %53
  br label %60

60:                                               ; preds = %59, %43
  br label %155

61:                                               ; preds = %34
  store i32 1, i32* %5, align 4
  br label %62

62:                                               ; preds = %109, %61
  %63 = load i32, i32* %5, align 4
  %64 = load i32, i32* %6, align 4
  %65 = sub nsw i32 %64, 1
  %66 = icmp sle i32 %63, %65
  br i1 %66, label %67, label %112

67:                                               ; preds = %62
  store i32 1, i32* %3, align 4
  br label %68

68:                                               ; preds = %105, %67
  %69 = load i32, i32* %3, align 4
  %70 = load i32, i32* %6, align 4
  %71 = load i32, i32* %5, align 4
  %72 = sub nsw i32 %70, %71
  %73 = sub nsw i32 %72, 1
  %74 = icmp sle i32 %69, %73
  br i1 %74, label %75, label %108

75:                                               ; preds = %68
  %76 = load i32, i32* %3, align 4
  %77 = add nsw i32 %76, 1
  %78 = sext i32 %77 to i64
  %79 = getelementptr inbounds [500 x i32], [500 x i32]* %2, i64 0, i64 %78
  %80 = load i32, i32* %79, align 4
  %81 = load i32, i32* %3, align 4
  %82 = sext i32 %81 to i64
  %83 = getelementptr inbounds [500 x i32], [500 x i32]* %2, i64 0, i64 %82
  %84 = load i32, i32* %83, align 4
  %85 = icmp sgt i32 %80, %84
  br i1 %85, label %86, label %104

86:                                               ; preds = %75
  %87 = load i32, i32* %3, align 4
  %88 = add nsw i32 %87, 1
  %89 = sext i32 %88 to i64
  %90 = getelementptr inbounds [500 x i32], [500 x i32]* %2, i64 0, i64 %89
  %91 = load i32, i32* %90, align 4
  store i32 %91, i32* %4, align 4
  %92 = load i32, i32* %3, align 4
  %93 = sext i32 %92 to i64
  %94 = getelementptr inbounds [500 x i32], [500 x i32]* %2, i64 0, i64 %93
  %95 = load i32, i32* %94, align 4
  %96 = load i32, i32* %3, align 4
  %97 = add nsw i32 %96, 1
  %98 = sext i32 %97 to i64
  %99 = getelementptr inbounds [500 x i32], [500 x i32]* %2, i64 0, i64 %98
  store i32 %95, i32* %99, align 4
  %100 = load i32, i32* %4, align 4
  %101 = load i32, i32* %3, align 4
  %102 = sext i32 %101 to i64
  %103 = getelementptr inbounds [500 x i32], [500 x i32]* %2, i64 0, i64 %102
  store i32 %100, i32* %103, align 4
  br label %104

104:                                              ; preds = %86, %75
  br label %105

105:                                              ; preds = %104
  %106 = load i32, i32* %3, align 4
  %107 = add nsw i32 %106, 1
  store i32 %107, i32* %3, align 4
  br label %68

108:                                              ; preds = %68
  br label %109

109:                                              ; preds = %108
  %110 = load i32, i32* %5, align 4
  %111 = add nsw i32 %110, 1
  store i32 %111, i32* %5, align 4
  br label %62

112:                                              ; preds = %62
  store i32 1, i32* %3, align 4
  br label %113

113:                                              ; preds = %131, %112
  %114 = load i32, i32* %3, align 4
  %115 = load i32, i32* %6, align 4
  %116 = sub nsw i32 %115, 1
  %117 = icmp slt i32 %114, %116
  br i1 %117, label %118, label %134

118:                                              ; preds = %113
  %119 = load i32, i32* %3, align 4
  %120 = sext i32 %119 to i64
  %121 = getelementptr inbounds [500 x i32], [500 x i32]* %2, i64 0, i64 %120
  %122 = load i32, i32* %121, align 4
  %123 = load i32, i32* %3, align 4
  %124 = add nsw i32 %123, 1
  %125 = sext i32 %124 to i64
  %126 = getelementptr inbounds [500 x i32], [500 x i32]* %2, i64 0, i64 %125
  %127 = load i32, i32* %126, align 4
  %128 = icmp ne i32 %122, %127
  br i1 %128, label %129, label %130

129:                                              ; preds = %118
  br label %134

130:                                              ; preds = %118
  br label %131

131:                                              ; preds = %130
  %132 = load i32, i32* %3, align 4
  %133 = add nsw i32 %132, 1
  store i32 %133, i32* %3, align 4
  br label %113

134:                                              ; preds = %129, %113
  %135 = load i32, i32* %3, align 4
  %136 = load i32, i32* %6, align 4
  %137 = sub nsw i32 %136, 1
  %138 = icmp slt i32 %135, %137
  br i1 %138, label %139, label %146

139:                                              ; preds = %134
  %140 = load i32, i32* %3, align 4
  %141 = add nsw i32 %140, 1
  %142 = sext i32 %141 to i64
  %143 = getelementptr inbounds [500 x i32], [500 x i32]* %2, i64 0, i64 %142
  %144 = load i32, i32* %143, align 4
  %145 = call i32 (i8*, ...) @printf(i8* getelementptr inbounds ([3 x i8], [3 x i8]* @.str, i64 0, i64 0), i32 %144)
  br label %154

146:                                              ; preds = %134
  %147 = load i32, i32* %3, align 4
  %148 = load i32, i32* %6, align 4
  %149 = sub nsw i32 %148, 1
  %150 = icmp sge i32 %147, %149
  br i1 %150, label %151, label %153

151:                                              ; preds = %146
  %152 = call i32 (i8*, ...) @printf(i8* getelementptr inbounds ([3 x i8], [3 x i8]* @.str.1, i64 0, i64 0))
  br label %153

153:                                              ; preds = %151, %146
  br label %154

154:                                              ; preds = %153, %139
  br label %155

155:                                              ; preds = %154, %60
  br label %156

156:                                              ; preds = %155, %32
  %157 = load i32, i32* %1, align 4
  ret i32 %157
}

declare dso_local i32 @__isoc99_scanf(i8*, ...) #1

declare dso_local i32 @getchar() #1

declare dso_local i32 @printf(i8*, ...) #1


!llvm.module.flags = !{!0}
!llvm.ident = !{!1}

!0 = !{i32 1, !"wchar_size", i32 4}
!1 = !{!"clang version 10.0.0-4ubuntu1 "}
